	.file	"test.c"
 # GNU C17 (MinGW.org GCC Build-2) version 9.2.0 (mingw32)
 #	compiled by GNU C version 9.2.0, GMP version 6.1.2, MPFR version 4.0.2, MPC version 1.1.0, isl version isl-0.21-GMP

 # GGC heuristics: --param ggc-min-expand=100 --param ggc-min-heapsize=131072
 # options passed:  -iprefix c:\mingw\bin\../lib/gcc/mingw32/9.2.0/ test.c
 # -mtune=generic -march=i586 -auxbase-strip test1.s -g -O2 -fverbose-asm
 # options enabled:  -faggressive-loop-optimizations -falign-functions
 # -falign-jumps -falign-labels -falign-loops -fassume-phsa
 # -fasynchronous-unwind-tables -fauto-inc-dec -fbranch-count-reg
 # -fcaller-saves -fcode-hoisting -fcombine-stack-adjustments -fcommon
 # -fcompare-elim -fcprop-registers -fcrossjumping -fcse-follow-jumps
 # -fdefer-pop -fdelete-null-pointer-checks -fdevirtualize
 # -fdevirtualize-speculatively -fdwarf2-cfi-asm -fearly-inlining
 # -feliminate-unused-debug-types -fexpensive-optimizations
 # -fforward-propagate -ffp-int-builtin-inexact -ffunction-cse -fgcse
 # -fgcse-lm -fgnu-runtime -fgnu-unique -fguess-branch-probability
 # -fhoist-adjacent-loads -fident -fif-conversion -fif-conversion2
 # -findirect-inlining -finline -finline-atomics
 # -finline-functions-called-once -finline-small-functions -fipa-bit-cp
 # -fipa-cp -fipa-icf -fipa-icf-functions -fipa-icf-variables -fipa-profile
 # -fipa-pure-const -fipa-ra -fipa-reference -fipa-reference-addressable
 # -fipa-sra -fipa-stack-alignment -fipa-vrp -fira-hoist-pressure
 # -fira-share-save-slots -fira-share-spill-slots
 # -fisolate-erroneous-paths-dereference -fivopts -fkeep-inline-dllexport
 # -fkeep-static-consts -fleading-underscore -flifetime-dse -flra-remat
 # -flto-odr-type-merging -fmath-errno -fmerge-constants
 # -fmerge-debug-strings -fmove-loop-invariants -fomit-frame-pointer
 # -foptimize-sibling-calls -foptimize-strlen -fpartial-inlining -fpeephole
 # -fpeephole2 -fplt -fprefetch-loop-arrays -free -freg-struct-return
 # -freorder-blocks -freorder-blocks-and-partition -freorder-functions
 # -frerun-cse-after-loop -fsched-critical-path-heuristic
 # -fsched-dep-count-heuristic -fsched-group-heuristic -fsched-interblock
 # -fsched-last-insn-heuristic -fsched-rank-heuristic -fsched-spec
 # -fsched-spec-insn-heuristic -fsched-stalled-insns-dep -fschedule-fusion
 # -fschedule-insns2 -fsemantic-interposition -fset-stack-executable
 # -fshow-column -fshrink-wrap -fshrink-wrap-separate -fsigned-zeros
 # -fsplit-ivs-in-unroller -fsplit-wide-types -fssa-backprop -fssa-phiopt
 # -fstdarg-opt -fstore-merging -fstrict-aliasing
 # -fstrict-volatile-bitfields -fsync-libcalls -fthread-jumps
 # -ftoplevel-reorder -ftrapping-math -ftree-bit-ccp
 # -ftree-builtin-call-dce -ftree-ccp -ftree-ch -ftree-coalesce-vars
 # -ftree-copy-prop -ftree-cselim -ftree-dce -ftree-dominator-opts
 # -ftree-dse -ftree-forwprop -ftree-fre -ftree-loop-if-convert
 # -ftree-loop-im -ftree-loop-ivcanon -ftree-loop-optimize
 # -ftree-parallelize-loops= -ftree-phiprop -ftree-pre -ftree-pta
 # -ftree-reassoc -ftree-scev-cprop -ftree-sink -ftree-slsr -ftree-sra
 # -ftree-switch-conversion -ftree-tail-merge -ftree-ter -ftree-vrp
 # -funit-at-a-time -funwind-tables -fvar-tracking
 # -fvar-tracking-assignments -fverbose-asm -fzero-initialized-in-bss -m32
 # -m80387 -m96bit-long-double -maccumulate-outgoing-args -malign-double
 # -malign-stringops -mavx256-split-unaligned-load
 # -mavx256-split-unaligned-store -mfancy-math-387 -mfp-ret-in-387
 # -mieee-fp -mlong-double-80 -mms-bitfields -mno-red-zone -mno-sse4
 # -mpush-args -msahf -mstack-arg-probe -mstv -mvzeroupper

	.text
Ltext0:
	.def	___main;	.scl	2;	.type	32;	.endef
	.section .rdata,"dr"
LC0:
	.ascii "%d, \0"
LC1:
	.ascii "%d\12\0"
LC2:
	.ascii "Worked\0"
	.section	.text.startup,"x"
	.p2align 4
	.globl	_main
	.def	_main;	.scl	2;	.type	32;	.endef
_main:
LFB15:
	.file 1 "test.c"
	.loc 1 4 1 view -0
	.cfi_startproc
	pushl	%ebp	 #
	.cfi_def_cfa_offset 8
	.cfi_offset 5, -8
	movl	%esp, %ebp	 #,
	.cfi_def_cfa_register 5
	pushl	%esi	 #
	.cfi_offset 6, -12
LBB2:
 # test.c:9:         y = 1;
	.loc 1 9 11 is_stmt 0 view LVU1
	movl	$1, %esi	 #, z
LBE2:
 # test.c:4: {
	.loc 1 4 1 view LVU2
	pushl	%ebx	 #
	.cfi_offset 3, -16
LBB3:
 # test.c:8:         x = 0;
	.loc 1 8 11 view LVU3
	xorl	%ebx, %ebx	 # x
LBE3:
 # test.c:4: {
	.loc 1 4 1 view LVU4
	andl	$-16, %esp	 #,
	subl	$16, %esp	 #,
 # test.c:4: {
	.loc 1 4 1 view LVU5
	call	___main	 #
LVL0:
	.loc 1 5 5 is_stmt 1 view LVU6
	.loc 1 6 5 view LVU7
LBB4:
	.loc 1 6 9 view LVU8
	.loc 1 6 20 view LVU9
	.p2align 4,,10
	.p2align 3
L2:
	.loc 1 10 9 view LVU10
	.loc 1 12 13 view LVU11
	movl	%ebx, 4(%esp)	 # x,
	movl	$LC0, (%esp)	 #,
	call	_printf	 #
LVL1:
	.loc 1 13 13 view LVU12
	movl	%esi, %eax	 # z, y
 # test.c:13:             z = x + y;
	.loc 1 13 15 is_stmt 0 view LVU13
	addl	%ebx, %esi	 # x, z
LVL2:
	.loc 1 14 13 is_stmt 1 view LVU14
	.loc 1 15 13 view LVU15
	.loc 1 16 17 view LVU16
	movl	%eax, %ebx	 # y, x
 # test.c:16:         } while (x < 234);
	.loc 1 16 9 is_stmt 0 view LVU17
	cmpl	$233, %eax	 #, x
	jle	L2	 #,
	.loc 1 17 9 is_stmt 1 view LVU18
	movl	%eax, 4(%esp)	 # x,
 # test.c:9:         y = 1;
	.loc 1 9 11 is_stmt 0 view LVU19
	movl	$1, %esi	 #, y
LVL3:
 # test.c:8:         x = 0;
	.loc 1 8 11 view LVU20
	xorl	%ebx, %ebx	 # x
 # test.c:17:         printf("%d\n", x);
	.loc 1 17 9 view LVU21
	movl	$LC1, (%esp)	 #,
	call	_printf	 #
LVL4:
	.loc 1 6 27 is_stmt 1 view LVU22
	.loc 1 6 20 view LVU23
	.p2align 4,,10
	.p2align 3
L3:
	.loc 1 10 9 view LVU24
	.loc 1 12 13 view LVU25
	movl	%ebx, 4(%esp)	 # x,
	movl	$LC0, (%esp)	 #,
	call	_printf	 #
LVL5:
	.loc 1 13 13 view LVU26
	movl	%esi, %eax	 # y, y
 # test.c:13:             z = x + y;
	.loc 1 13 15 is_stmt 0 view LVU27
	addl	%ebx, %esi	 # x, y
LVL6:
	.loc 1 14 13 is_stmt 1 view LVU28
	.loc 1 15 13 view LVU29
	.loc 1 16 17 view LVU30
	movl	%eax, %ebx	 # y, x
 # test.c:16:         } while (x < 234);
	.loc 1 16 9 is_stmt 0 view LVU31
	cmpl	$233, %eax	 #, x
	jle	L3	 #,
	.loc 1 17 9 is_stmt 1 view LVU32
	movl	%eax, 4(%esp)	 # x,
	movl	$LC1, (%esp)	 #,
	call	_printf	 #
LVL7:
	.loc 1 6 27 view LVU33
	.loc 1 6 20 view LVU34
LBE4:
	.loc 1 19 5 view LVU35
	movl	$LC2, (%esp)	 #,
	call	_printf	 #
LVL8:
	.loc 1 20 5 view LVU36
 # test.c:21: }
	.loc 1 21 1 is_stmt 0 view LVU37
	leal	-8(%ebp), %esp	 #,
	xorl	%eax, %eax	 #
	popl	%ebx	 #
	.cfi_restore 3
LVL9:
	.loc 1 21 1 view LVU38
	popl	%esi	 #
	.cfi_restore 6
LVL10:
	.loc 1 21 1 view LVU39
	popl	%ebp	 #
	.cfi_restore 5
	.cfi_def_cfa 4, 4
	ret	
	.cfi_endproc
LFE15:
	.text
Letext0:
	.file 2 "c:/mingw/include/stdio.h"